target datalayout = "e-m:e-p270:32:32-p271:32:32-p272:64:64-i64:64-i128:128-f80:128-n8:16:32:64-S128"
target triple = "x86_64-unknown-linux-gnu"

%"class.std::set.0" = type { %"class.std::_Rb_tree.1" }
%"class.std::_Rb_tree.1" = type { %"struct.std::_Rb_tree<QuantLib::Observer *, QuantLib::Observer *, std::_Identity<QuantLib::Observer *>, std::less<QuantLib::Observer *>>::_Rb_tree_impl" }
%"struct.std::_Rb_tree<QuantLib::Observer *, QuantLib::Observer *, std::_Identity<QuantLib::Observer *>, std::less<QuantLib::Observer *>>::_Rb_tree_impl" = type { [8 x i8], %"struct.std::_Rb_tree_header" }
%"struct.std::_Rb_tree_header" = type { %"struct.std::_Rb_tree_node_base", i64 }
%"struct.std::_Rb_tree_node_base" = type { i32, ptr, ptr, ptr }
%"class.std::set" = type { %"class.std::_Rb_tree" }
%"class.std::_Rb_tree" = type { %"struct.std::_Rb_tree<boost::shared_ptr<QuantLib::Observable>, boost::shared_ptr<QuantLib::Observable>, std::_Identity<boost::shared_ptr<QuantLib::Observable>>, std::less<boost::shared_ptr<QuantLib::Observable>>>::_Rb_tree_impl" }
%"struct.std::_Rb_tree<boost::shared_ptr<QuantLib::Observable>, boost::shared_ptr<QuantLib::Observable>, std::_Identity<boost::shared_ptr<QuantLib::Observable>>, std::less<boost::shared_ptr<QuantLib::Observable>>>::_Rb_tree_impl" = type { [8 x i8], %"struct.std::_Rb_tree_header" }
%"class.boost::detail::shared_count" = type { ptr }
%"class.QuantLib::Observable" = type { ptr, %"class.std::set.0" }
%"class.QuantLib::YoYInflationCouponPricer" = type { %"class.QuantLib::InflationCouponPricer.base", %"class.QuantLib::Handle.37", %"class.QuantLib::Handle", ptr, double, double, double, %"class.QuantLib::Observer", %"class.QuantLib::Observable" }
%"class.QuantLib::InflationCouponPricer.base" = type { ptr, %"class.QuantLib::Date" }
%"class.QuantLib::Date" = type { i64 }
%"class.QuantLib::Handle.37" = type { %"class.boost::shared_ptr.38" }
%"class.boost::shared_ptr.38" = type { ptr, %"class.boost::detail::shared_count" }
%"class.QuantLib::Handle" = type { %"class.boost::shared_ptr.36" }
%"class.boost::shared_ptr.36" = type { ptr, %"class.boost::detail::shared_count" }
%"class.QuantLib::Observer" = type { ptr, %"class.std::set" }

; Function Attrs: mustprogress uwtable
define noundef double @_ZNK8QuantLib24YoYInflationCouponPricer12floorletRateEd(ptr noundef nonnull align 8 dereferenceable(80) %this, double noundef %effectiveFloor) unnamed_addr #2 align 2 {
entry:
  %this.addr = alloca ptr, align 8
  %effectiveFloor.addr = alloca double, align 8
  store ptr %this, ptr %this.addr, align 8, !tbaa !3
  store double %effectiveFloor, ptr %effectiveFloor.addr, align 8, !tbaa !22
  %this1 = load ptr, ptr %this.addr, align 8
  %gearing_ = getelementptr inbounds nuw %"class.QuantLib::YoYInflationCouponPricer", ptr %this1, i32 0, i32 4
  %0 = load double, ptr %gearing_, align 8, !tbaa !24
  %1 = load double, ptr %effectiveFloor.addr, align 8, !tbaa !22
  %vtable = load ptr, ptr %this1, align 8, !tbaa !12
  %vfn = getelementptr inbounds ptr, ptr %vtable, i64 14
  %2 = load ptr, ptr %vfn, align 8
  %call = call noundef double %2(ptr noundef nonnull align 8 dereferenceable(80) %this1, i32 noundef -1, double noundef %1)
  %mul = fmul double %0, %call
  ret double %mul
}