; Function Attrs: mustprogress uwtable
define noundef double @_ZNK8QuantLib24YoYInflationCouponPricer12floorletRateEd(ptr noundef nonnull align 8 dereferenceable(80) %this, double noundef %effectiveFloor) unnamed_addr #8 align 2 {
entry:
  %gearing_ = getelementptr inbounds nuw i8, ptr %this, i64 56
  %0 = load double, ptr %gearing_, align 8, !tbaa !79
  %vtable = load ptr, ptr %this, align 8, !tbaa !35
  %vfn = getelementptr inbounds i8, ptr %vtable, i64 112
  %1 = load ptr, ptr %vfn, align 8
  %call = tail call noundef double %1(ptr noundef nonnull align 8 dereferenceable(80) %this, i32 noundef -1, double noundef %effectiveFloor)
  %mul = fmul double %0, %call
  ret double %mul
}